; ModuleID = '34/2216.c'
source_filename = "34/2216.c"
target datalayout = "e-m:e-p270:32:32-p271:32:32-p272:64:64-i64:64-f80:128-n8:16:32:64-S128"
target triple = "x86_64-pc-linux-gnu"

@.str = private unnamed_addr constant [3 x i8] c"%d\00", align 1
@.str.1 = private unnamed_addr constant [9 x i8] c"%d/2=%d\0A\00", align 1
@.str.2 = private unnamed_addr constant [11 x i8] c"%d*3+1=%d\0A\00", align 1
@.str.3 = private unnamed_addr constant [5 x i8] c"End\0A\00", align 1

; Function Attrs: noinline nounwind uwtable
define dso_local i32 @main() #0 {
  %1 = alloca i32, align 4
  %2 = alloca i32, align 4
  %3 = alloca i32, align 4
  %4 = alloca i32, align 4
  %5 = alloca i32, align 4
  store i32 0, i32* %1, align 4
  %6 = call i32 (i8*, ...) @__isoc99_scanf(i8* getelementptr inbounds ([3 x i8], [3 x i8]* @.str, i64 0, i64 0), i32* %2)
  store i32 0, i32* %5, align 4
  br label %7

7:                                                ; preds = %32, %0
  %8 = load i32, i32* %2, align 4
  %9 = icmp eq i32 %8, 1
  br i1 %9, label %10, label %11

10:                                               ; preds = %7
  br label %35

11:                                               ; preds = %7
  %12 = load i32, i32* %2, align 4
  %13 = srem i32 %12, 2
  %14 = icmp eq i32 %13, 0
  br i1 %14, label %15, label %22

15:                                               ; preds = %11
  %16 = load i32, i32* %2, align 4
  %17 = sdiv i32 %16, 2
  store i32 %17, i32* %2, align 4
  %18 = load i32, i32* %2, align 4
  %19 = mul nsw i32 2, %18
  %20 = load i32, i32* %2, align 4
  %21 = call i32 (i8*, ...) @printf(i8* getelementptr inbounds ([9 x i8], [9 x i8]* @.str.1, i64 0, i64 0), i32 %19, i32 %20)
  br label %31

22:                                               ; preds = %11
  %23 = load i32, i32* %2, align 4
  %24 = mul nsw i32 %23, 3
  %25 = add nsw i32 %24, 1
  store i32 %25, i32* %2, align 4
  %26 = load i32, i32* %2, align 4
  %27 = sub nsw i32 %26, 1
  %28 = sdiv i32 %27, 3
  %29 = load i32, i32* %2, align 4
  %30 = call i32 (i8*, ...) @printf(i8* getelementptr inbounds ([11 x i8], [11 x i8]* @.str.2, i64 0, i64 0), i32 %28, i32 %29)
  br label %31

31:                                               ; preds = %22, %15
  br label %32

32:                                               ; preds = %31
  %33 = load i32, i32* %5, align 4
  %34 = add nsw i32 %33, 1
  store i32 %34, i32* %5, align 4
  br label %7

35:                                               ; preds = %10
  %36 = call i32 (i8*, ...) @printf(i8* getelementptr inbounds ([5 x i8], [5 x i8]* @.str.3, i64 0, i64 0))
  ret i32 0
}

declare dso_local i32 @__isoc99_scanf(i8*, ...) #1

declare dso_local i32 @printf(i8*, ...) #1


!llvm.module.flags = !{!0}
!llvm.ident = !{!1}

!0 = !{i32 1, !"wchar_size", i32 4}
!1 = !{!"clang version 10.0.0-4ubuntu1 "}
